(lp0
(dp1
Vdocument_tone
p2
(dp3
Vtone_categories
p4
(lp5
(dp6
Vcategory_id
p7
Vemotion_tone
p8
sVtones
p9
(lp10
(dp11
Vtone_name
p12
VAnger
p13
sVscore
p14
F0.152953
sVtone_id
p15
Vanger
p16
sa(dp17
Vtone_name
p18
VDisgust
p19
sVscore
p20
F0.445262
sVtone_id
p21
Vdisgust
p22
sa(dp23
Vtone_name
p24
VFear
p25
sVscore
p26
F0.135019
sVtone_id
p27
Vfear
p28
sa(dp29
Vtone_name
p30
VJoy
p31
sVscore
p32
F0.212259
sVtone_id
p33
Vjoy
p34
sa(dp35
Vtone_name
p36
VSadness
p37
sVscore
p38
F0.540585
sVtone_id
p39
Vsadness
p40
sasVcategory_name
p41
VEmotion Tone
p42
sa(dp43
Vcategory_id
p44
Vlanguage_tone
p45
sVtones
p46
(lp47
(dp48
Vtone_name
p49
VAnalytical
p50
sVscore
p51
F0.273352
sVtone_id
p52
Vanalytical
p53
sa(dp54
Vtone_name
p55
VConfident
p56
sVscore
p57
F0.058857
sVtone_id
p58
Vconfident
p59
sa(dp60
Vtone_name
p61
VTentative
p62
sVscore
p63
F0.0
sVtone_id
p64
Vtentative
p65
sasVcategory_name
p66
VLanguage Tone
p67
sa(dp68
Vcategory_id
p69
Vsocial_tone
p70
sVtones
p71
(lp72
(dp73
Vtone_name
p74
VOpenness
p75
sVscore
p76
F0.614085
sVtone_id
p77
Vopenness_big5
p78
sa(dp79
Vtone_name
p80
VConscientiousness
p81
sVscore
p82
F0.794651
sVtone_id
p83
Vconscientiousness_big5
p84
sa(dp85
Vtone_name
p86
VExtraversion
p87
sVscore
p88
F0.38621
sVtone_id
p89
Vextraversion_big5
p90
sa(dp91
Vtone_name
p92
VAgreeableness
p93
sVscore
p94
F0.801136
sVtone_id
p95
Vagreeableness_big5
p96
sa(dp97
Vtone_name
p98
VEmotional Range
p99
sVscore
p100
F0.63551
sVtone_id
p101
Vemotional_range_big5
p102
sasVcategory_name
p103
VSocial Tone
p104
sassa(dp105
Vdocument_tone
p106
(dp107
Vtone_categories
p108
(lp109
(dp110
Vcategory_id
p111
Vemotion_tone
p112
sVtones
p113
(lp114
(dp115
Vtone_name
p116
VAnger
p117
sVscore
p118
F0.108194
sVtone_id
p119
Vanger
p120
sa(dp121
Vtone_name
p122
VDisgust
p123
sVscore
p124
F0.128151
sVtone_id
p125
Vdisgust
p126
sa(dp127
Vtone_name
p128
VFear
p129
sVscore
p130
F0.11069
sVtone_id
p131
Vfear
p132
sa(dp133
Vtone_name
p134
VJoy
p135
sVscore
p136
F0.46237
sVtone_id
p137
Vjoy
p138
sa(dp139
Vtone_name
p140
VSadness
p141
sVscore
p142
F0.537268
sVtone_id
p143
Vsadness
p144
sasVcategory_name
p145
VEmotion Tone
p146
sa(dp147
Vcategory_id
p148
Vlanguage_tone
p149
sVtones
p150
(lp151
(dp152
Vtone_name
p153
VAnalytical
p154
sVscore
p155
F0.527677
sVtone_id
p156
Vanalytical
p157
sa(dp158
Vtone_name
p159
VConfident
p160
sVscore
p161
F0.0
sVtone_id
p162
Vconfident
p163
sa(dp164
Vtone_name
p165
VTentative
p166
sVscore
p167
F0.090515
sVtone_id
p168
Vtentative
p169
sasVcategory_name
p170
VLanguage Tone
p171
sa(dp172
Vcategory_id
p173
Vsocial_tone
p174
sVtones
p175
(lp176
(dp177
Vtone_name
p178
VOpenness
p179
sVscore
p180
F0.707428
sVtone_id
p181
Vopenness_big5
p182
sa(dp183
Vtone_name
p184
VConscientiousness
p185
sVscore
p186
F0.661694
sVtone_id
p187
Vconscientiousness_big5
p188
sa(dp189
Vtone_name
p190
VExtraversion
p191
sVscore
p192
F0.584446
sVtone_id
p193
Vextraversion_big5
p194
sa(dp195
Vtone_name
p196
VAgreeableness
p197
sVscore
p198
F0.876622
sVtone_id
p199
Vagreeableness_big5
p200
sa(dp201
Vtone_name
p202
VEmotional Range
p203
sVscore
p204
F0.606804
sVtone_id
p205
Vemotional_range_big5
p206
sasVcategory_name
p207
VSocial Tone
p208
sassa(dp209
Vdocument_tone
p210
(dp211
Vtone_categories
p212
(lp213
(dp214
Vcategory_id
p215
Vemotion_tone
p216
sVtones
p217
(lp218
(dp219
Vtone_name
p220
VAnger
p221
sVscore
p222
F0.126711
sVtone_id
p223
Vanger
p224
sa(dp225
Vtone_name
p226
VDisgust
p227
sVscore
p228
F0.116938
sVtone_id
p229
Vdisgust
p230
sa(dp231
Vtone_name
p232
VFear
p233
sVscore
p234
F0.121651
sVtone_id
p235
Vfear
p236
sa(dp237
Vtone_name
p238
VJoy
p239
sVscore
p240
F0.274292
sVtone_id
p241
Vjoy
p242
sa(dp243
Vtone_name
p244
VSadness
p245
sVscore
p246
F0.529531
sVtone_id
p247
Vsadness
p248
sasVcategory_name
p249
VEmotion Tone
p250
sa(dp251
Vcategory_id
p252
Vlanguage_tone
p253
sVtones
p254
(lp255
(dp256
Vtone_name
p257
VAnalytical
p258
sVscore
p259
F0.437104
sVtone_id
p260
Vanalytical
p261
sa(dp262
Vtone_name
p263
VConfident
p264
sVscore
p265
F0.0
sVtone_id
p266
Vconfident
p267
sa(dp268
Vtone_name
p269
VTentative
p270
sVscore
p271
F0.190858
sVtone_id
p272
Vtentative
p273
sasVcategory_name
p274
VLanguage Tone
p275
sa(dp276
Vcategory_id
p277
Vsocial_tone
p278
sVtones
p279
(lp280
(dp281
Vtone_name
p282
VOpenness
p283
sVscore
p284
F0.637195
sVtone_id
p285
Vopenness_big5
p286
sa(dp287
Vtone_name
p288
VConscientiousness
p289
sVscore
p290
F0.738306
sVtone_id
p291
Vconscientiousness_big5
p292
sa(dp293
Vtone_name
p294
VExtraversion
p295
sVscore
p296
F0.429542
sVtone_id
p297
Vextraversion_big5
p298
sa(dp299
Vtone_name
p300
VAgreeableness
p301
sVscore
p302
F0.832768
sVtone_id
p303
Vagreeableness_big5
p304
sa(dp305
Vtone_name
p306
VEmotional Range
p307
sVscore
p308
F0.658457
sVtone_id
p309
Vemotional_range_big5
p310
sasVcategory_name
p311
VSocial Tone
p312
sassa(lp313
F0.152953
aF0.445262
aF0.135019
aF0.212259
aF0.540585
aF0.273352
aF0.058857
aF0.0
aF0.614085
aF0.794651
aF0.38621
aF0.801136
aF0.63551
aF0.108194
aF0.128151
aF0.11069
aF0.46237
aF0.537268
aF0.527677
aF0.0
aF0.090515
aF0.707428
aF0.661694
aF0.584446
aF0.876622
aF0.606804
aF0.126711
aF0.116938
aF0.121651
aF0.274292
aF0.529531
aF0.437104
aF0.0
aF0.190858
aF0.637195
aF0.738306
aF0.429542
aF0.832768
aF0.658457
aa.